; Function Attrs: mustprogress nounwind uwtable
define hidden void @_ZN19RunFinalizationDCmd7executeE10DCmdSourceP10JavaThread(ptr nocapture nonnull readnone align 8 %0, i32 %1, ptr noundef %2) unnamed_addr #0 align 2 {
  %4 = alloca %class.JavaValue, align 8
  %5 = load ptr, ptr getelementptr inbounds (i8, ptr @_ZN9vmClasses8_klassesE, i64 48), align 8
  store i8 14, ptr %4, align 8
  %6 = load ptr, ptr getelementptr inbounds (i8, ptr @_ZN6Symbol11_vm_symbolsE, i64 3216), align 8
  %7 = load ptr, ptr getelementptr inbounds (i8, ptr @_ZN6Symbol11_vm_symbolsE, i64 6752), align 8
  call void @_ZN9JavaCalls11call_staticEP9JavaValueP5KlassP6SymbolS5_P10JavaThread(ptr noundef nonnull %4, ptr noundef %5, ptr noundef %6, ptr noundef %7, ptr noundef %2) #17
  ret void
}